ARM GAS  C:\Users\siman\AppData\Local\Temp\ccRDtgYG.s 			page 1


   1              		.syntax unified
   2              		.cpu cortex-m3
   3              		.fpu softvfp
   4              		.eabi_attribute 20, 1
   5              		.eabi_attribute 21, 1
   6              		.eabi_attribute 23, 3
   7              		.eabi_attribute 24, 1
   8              		.eabi_attribute 25, 1
   9              		.eabi_attribute 26, 1
  10              		.eabi_attribute 30, 1
  11              		.eabi_attribute 34, 1
  12              		.eabi_attribute 18, 4
  13              		.thumb
  14              		.syntax unified
  15              		.file	"gpio_driver.c"
  16              		.text
  17              	.Ltext0:
  18              		.cfi_sections	.debug_frame
  19              		.section	.text.GPIO_Init,"ax",%progbits
  20              		.align	2
  21              		.global	GPIO_Init
  22              		.thumb
  23              		.thumb_func
  24              		.type	GPIO_Init, %function
  25              	GPIO_Init:
  26              	.LFB63:
  27              		.file 1 "gpio_driver.c"
   1:gpio_driver.c **** /* ========================================
   2:gpio_driver.c ****  *
   3:gpio_driver.c ****  * Copyright YOUR COMPANY, THE YEAR
   4:gpio_driver.c ****  * All Rights Reserved
   5:gpio_driver.c ****  * UNPUBLISHED, LICENSED SOFTWARE.
   6:gpio_driver.c ****  *
   7:gpio_driver.c ****  * CONFIDENTIAL AND PROPRIETARY INFORMATION
   8:gpio_driver.c ****  * WHICH IS THE PROPERTY OF your company.
   9:gpio_driver.c ****  *
  10:gpio_driver.c ****  * ========================================
  11:gpio_driver.c **** */
  12:gpio_driver.c **** #include "gpio_driver.h"
  13:gpio_driver.c **** 
  14:gpio_driver.c **** void GPIO_Init(void) {
  28              		.loc 1 14 0
  29              		.cfi_startproc
  30              		@ args = 0, pretend = 0, frame = 0
  31              		@ frame_needed = 0, uses_anonymous_args = 0
  32              		@ link register save eliminated.
  33 0000 7047     		bx	lr
  34              		.cfi_endproc
  35              	.LFE63:
  36              		.size	GPIO_Init, .-GPIO_Init
  37 0002 00BF     		.section	.text.GPIO_ReadButtons,"ax",%progbits
  38              		.align	2
  39              		.global	GPIO_ReadButtons
  40              		.thumb
  41              		.thumb_func
  42              		.type	GPIO_ReadButtons, %function
  43              	GPIO_ReadButtons:
ARM GAS  C:\Users\siman\AppData\Local\Temp\ccRDtgYG.s 			page 2


  44              	.LFB64:
  15:gpio_driver.c ****     // You can initialize pins here if needed, or leave empty
  16:gpio_driver.c **** }
  17:gpio_driver.c **** 
  18:gpio_driver.c **** void GPIO_ReadButtons(ButtonState *left, ButtonState *right) {
  45              		.loc 1 18 0
  46              		.cfi_startproc
  47              		@ args = 0, pretend = 0, frame = 0
  48              		@ frame_needed = 0, uses_anonymous_args = 0
  49              	.LVL0:
  50              		.loc 1 18 0
  51 0000 38B5     		push	{r3, r4, r5, lr}
  52              		.cfi_def_cfa_offset 16
  53              		.cfi_offset 3, -16
  54              		.cfi_offset 4, -12
  55              		.cfi_offset 5, -8
  56              		.cfi_offset 14, -4
  57 0002 0546     		mov	r5, r0
  58 0004 0C46     		mov	r4, r1
  19:gpio_driver.c ****     left->prev_state = left->state;
  59              		.loc 1 19 0
  60 0006 0378     		ldrb	r3, [r0]	@ zero_extendqisi2
  61 0008 4370     		strb	r3, [r0, #1]
  20:gpio_driver.c ****     right->prev_state = right->state;
  62              		.loc 1 20 0
  63 000a 0B78     		ldrb	r3, [r1]	@ zero_extendqisi2
  64 000c 4B70     		strb	r3, [r1, #1]
  21:gpio_driver.c **** 
  22:gpio_driver.c ****     // Active-low buttons: 0 = pressed, 1 = not pressed
  23:gpio_driver.c ****     left->state = Left_Button_Read();
  65              		.loc 1 23 0
  66 000e FFF7FEFF 		bl	Left_Button_Read
  67              	.LVL1:
  68 0012 2870     		strb	r0, [r5]
  24:gpio_driver.c ****     right->state = Right_Button_Read();
  69              		.loc 1 24 0
  70 0014 FFF7FEFF 		bl	Right_Button_Read
  71              	.LVL2:
  72 0018 2070     		strb	r0, [r4]
  73 001a 38BD     		pop	{r3, r4, r5, pc}
  74              		.cfi_endproc
  75              	.LFE64:
  76              		.size	GPIO_ReadButtons, .-GPIO_ReadButtons
  77              		.section	.text.GPIO_SetLED,"ax",%progbits
  78              		.align	2
  79              		.global	GPIO_SetLED
  80              		.thumb
  81              		.thumb_func
  82              		.type	GPIO_SetLED, %function
  83              	GPIO_SetLED:
  84              	.LFB65:
  25:gpio_driver.c **** }
  26:gpio_driver.c **** 
  27:gpio_driver.c **** void GPIO_SetLED(uint8_t led_id, uint8_t state) {
  85              		.loc 1 27 0
  86              		.cfi_startproc
  87              		@ args = 0, pretend = 0, frame = 0
ARM GAS  C:\Users\siman\AppData\Local\Temp\ccRDtgYG.s 			page 3


  88              		@ frame_needed = 0, uses_anonymous_args = 0
  89              	.LVL3:
  90 0000 10B5     		push	{r4, lr}
  91              		.cfi_def_cfa_offset 8
  92              		.cfi_offset 4, -8
  93              		.cfi_offset 14, -4
  94 0002 0C46     		mov	r4, r1
  28:gpio_driver.c ****     if (led_id == LED_LEFT) {
  95              		.loc 1 28 0
  96 0004 28B9     		cbnz	r0, .L5
  29:gpio_driver.c ****         PWM_1_Enable();
  97              		.loc 1 29 0
  98 0006 FFF7FEFF 		bl	PWM_1_Enable
  99              	.LVL4:
  30:gpio_driver.c ****         if (!state) PWM_1_Stop();
 100              		.loc 1 30 0
 101 000a 4CB9     		cbnz	r4, .L4
 102              		.loc 1 30 0 is_stmt 0 discriminator 1
 103 000c FFF7FEFF 		bl	PWM_1_Stop
 104              	.LVL5:
 105 0010 10BD     		pop	{r4, pc}
 106              	.LVL6:
 107              	.L5:
  31:gpio_driver.c ****     } else if (led_id == LED_RIGHT) {
 108              		.loc 1 31 0 is_stmt 1
 109 0012 0128     		cmp	r0, #1
 110 0014 04D1     		bne	.L4
  32:gpio_driver.c ****         PWM_2_Enable();
 111              		.loc 1 32 0
 112 0016 FFF7FEFF 		bl	PWM_2_Enable
 113              	.LVL7:
  33:gpio_driver.c ****         if (!state) PWM_2_Stop();
 114              		.loc 1 33 0
 115 001a 0CB9     		cbnz	r4, .L4
 116              		.loc 1 33 0 is_stmt 0 discriminator 1
 117 001c FFF7FEFF 		bl	PWM_2_Stop
 118              	.LVL8:
 119              	.L4:
 120 0020 10BD     		pop	{r4, pc}
 121              		.cfi_endproc
 122              	.LFE65:
 123              		.size	GPIO_SetLED, .-GPIO_SetLED
 124 0022 00BF     		.text
 125              	.Letext0:
 126              		.file 2 "c:\\program files (x86)\\cypress\\psoc creator\\4.4\\psoc creator\\import\\gnu\\arm\\5.4.
 127              		.file 3 "c:\\program files (x86)\\cypress\\psoc creator\\4.4\\psoc creator\\import\\gnu\\arm\\5.4.
 128              		.file 4 "gpio_driver.h"
 129              		.file 5 "Generated_Source\\PSoC5/Left_Button.h"
 130              		.file 6 "Generated_Source\\PSoC5/Right_Button.h"
 131              		.file 7 "Generated_Source\\PSoC5/PWM_1.h"
 132              		.file 8 "Generated_Source\\PSoC5/PWM_2.h"
 133              		.file 9 "Generated_Source\\PSoC5/core_cm3.h"