ARM GAS  C:\Users\siman\AppData\Local\Temp\ccccThye.s 			page 1


   1              		.syntax unified
   2              		.cpu cortex-m3
   3              		.fpu softvfp
   4              		.eabi_attribute 20, 1
   5              		.eabi_attribute 21, 1
   6              		.eabi_attribute 23, 3
   7              		.eabi_attribute 24, 1
   8              		.eabi_attribute 25, 1
   9              		.eabi_attribute 26, 1
  10              		.eabi_attribute 30, 1
  11              		.eabi_attribute 34, 1
  12              		.eabi_attribute 18, 4
  13              		.thumb
  14              		.syntax unified
  15              		.file	"indicator_app.c"
  16              		.text
  17              	.Ltext0:
  18              		.cfi_sections	.debug_frame
  19              		.section	.text.IndicatorApp_Init,"ax",%progbits
  20              		.align	2
  21              		.global	IndicatorApp_Init
  22              		.thumb
  23              		.thumb_func
  24              		.type	IndicatorApp_Init, %function
  25              	IndicatorApp_Init:
  26              	.LFB63:
  27              		.file 1 "indicator_app.c"
   1:indicator_app.c **** /* ========================================
   2:indicator_app.c ****  *
   3:indicator_app.c ****  * Copyright YOUR COMPANY, THE YEAR
   4:indicator_app.c ****  * All Rights Reserved
   5:indicator_app.c ****  * UNPUBLISHED, LICENSED SOFTWARE.
   6:indicator_app.c ****  *
   7:indicator_app.c ****  * CONFIDENTIAL AND PROPRIETARY INFORMATION
   8:indicator_app.c ****  * WHICH IS THE PROPERTY OF your company.
   9:indicator_app.c ****  *
  10:indicator_app.c ****  * ========================================
  11:indicator_app.c **** */
  12:indicator_app.c **** #include "indicator_app.h"
  13:indicator_app.c **** #include "pwm_driver.h"
  14:indicator_app.c **** #include "uart_driver.h"
  15:indicator_app.c **** #include <stdbool.h>
  16:indicator_app.c **** 
  17:indicator_app.c **** // Indicator states
  18:indicator_app.c **** static bool left_indicator_active = false;
  19:indicator_app.c **** static bool right_indicator_active = false;
  20:indicator_app.c **** static bool hazard_active = false;
  21:indicator_app.c **** static uint32_t last_toggle_time = 0;
  22:indicator_app.c **** 
  23:indicator_app.c **** void IndicatorApp_Init(void) {
  28              		.loc 1 23 0
  29              		.cfi_startproc
  30              		@ args = 0, pretend = 0, frame = 0
  31              		@ frame_needed = 0, uses_anonymous_args = 0
  32              		@ link register save eliminated.
  24:indicator_app.c ****     left_indicator_active = false;
  33              		.loc 1 24 0
ARM GAS  C:\Users\siman\AppData\Local\Temp\ccccThye.s 			page 2


  34 0000 034B     		ldr	r3, .L2
  35 0002 0022     		movs	r2, #0
  36 0004 1A70     		strb	r2, [r3]
  25:indicator_app.c ****     right_indicator_active = false;
  37              		.loc 1 25 0
  38 0006 5A70     		strb	r2, [r3, #1]
  26:indicator_app.c ****     hazard_active = false;
  39              		.loc 1 26 0
  40 0008 9A70     		strb	r2, [r3, #2]
  27:indicator_app.c ****     last_toggle_time = 0;
  41              		.loc 1 27 0
  42 000a 5A60     		str	r2, [r3, #4]
  43 000c 7047     		bx	lr
  44              	.L3:
  45 000e 00BF     		.align	2
  46              	.L2:
  47 0010 00000000 		.word	.LANCHOR0
  48              		.cfi_endproc
  49              	.LFE63:
  50              		.size	IndicatorApp_Init, .-IndicatorApp_Init
  51              		.section	.text.IndicatorApp_Run,"ax",%progbits
  52              		.align	2
  53              		.global	IndicatorApp_Run
  54              		.thumb
  55              		.thumb_func
  56              		.type	IndicatorApp_Run, %function
  57              	IndicatorApp_Run:
  58              	.LFB64:
  28:indicator_app.c **** }
  29:indicator_app.c **** 
  30:indicator_app.c **** void IndicatorApp_Run(ButtonState *left_button, ButtonState *right_button, uint32_t current_time) {
  59              		.loc 1 30 0
  60              		.cfi_startproc
  61              		@ args = 0, pretend = 0, frame = 0
  62              		@ frame_needed = 0, uses_anonymous_args = 0
  63              	.LVL0:
  64 0000 38B5     		push	{r3, r4, r5, lr}
  65              		.cfi_def_cfa_offset 16
  66              		.cfi_offset 3, -16
  67              		.cfi_offset 4, -12
  68              		.cfi_offset 5, -8
  69              		.cfi_offset 14, -4
  70 0002 1446     		mov	r4, r2
  31:indicator_app.c ****     // Detect button presses (1 sec = 10 ticks)
  32:indicator_app.c ****     bool left_pressed = (left_button->state == BUTTON_PRESSED && left_button->prev_state != BUTTON_
  71              		.loc 1 32 0
  72 0004 0578     		ldrb	r5, [r0]	@ zero_extendqisi2
  73 0006 1DB9     		cbnz	r5, .L25
  74              		.loc 1 32 0 is_stmt 0 discriminator 1
  75 0008 4378     		ldrb	r3, [r0, #1]	@ zero_extendqisi2
  76 000a 1BB9     		cbnz	r3, .L26
  77              		.loc 1 32 0
  78 000c 0022     		movs	r2, #0
  79              	.LVL1:
  80 000e 02E0     		b	.L5
  81              	.LVL2:
  82              	.L25:
ARM GAS  C:\Users\siman\AppData\Local\Temp\ccccThye.s 			page 3


  83 0010 0022     		movs	r2, #0
  84              	.LVL3:
  85 0012 00E0     		b	.L5
  86              	.LVL4:
  87              	.L26:
  88 0014 0122     		movs	r2, #1
  89              	.LVL5:
  90              	.L5:
  33:indicator_app.c ****     bool right_pressed = (right_button->state == BUTTON_PRESSED && right_button->prev_state != BUTT
  91              		.loc 1 33 0 is_stmt 1 discriminator 6
  92 0016 0878     		ldrb	r0, [r1]	@ zero_extendqisi2
  93              	.LVL6:
  94 0018 10B9     		cbnz	r0, .L27
  95              		.loc 1 33 0 is_stmt 0 discriminator 1
  96 001a 4B78     		ldrb	r3, [r1, #1]	@ zero_extendqisi2
  97 001c 13B9     		cbnz	r3, .L28
  98 001e 02E0     		b	.L6
  99              	.L27:
 100              		.loc 1 33 0
 101 0020 0023     		movs	r3, #0
 102 0022 00E0     		b	.L6
 103              	.L28:
 104 0024 0123     		movs	r3, #1
 105              	.L6:
 106              	.LVL7:
  34:indicator_app.c ****     static uint32_t left_press_start = 0;
  35:indicator_app.c ****     static uint32_t right_press_start = 0;
  36:indicator_app.c ****     static bool left_held = false;
  37:indicator_app.c ****     static bool right_held = false;
  38:indicator_app.c ****     
  39:indicator_app.c ****     if (left_pressed) {
 107              		.loc 1 39 0 is_stmt 1 discriminator 6
 108 0026 1AB1     		cbz	r2, .L7
  40:indicator_app.c ****         left_press_start = current_time;
 109              		.loc 1 40 0
 110 0028 5F4A     		ldr	r2, .L30
 111              	.LVL8:
 112 002a 9460     		str	r4, [r2, #8]
  41:indicator_app.c ****         left_held = false;
 113              		.loc 1 41 0
 114 002c 0021     		movs	r1, #0
 115              	.LVL9:
 116 002e 1173     		strb	r1, [r2, #12]
 117              	.L7:
  42:indicator_app.c ****     }
  43:indicator_app.c ****     if (right_pressed) {
 118              		.loc 1 43 0
 119 0030 1BB1     		cbz	r3, .L8
  44:indicator_app.c ****         right_press_start = current_time;
 120              		.loc 1 44 0
 121 0032 5D4B     		ldr	r3, .L30
 122              	.LVL10:
 123 0034 1C61     		str	r4, [r3, #16]
  45:indicator_app.c ****         right_held = false;
 124              		.loc 1 45 0
 125 0036 0022     		movs	r2, #0
 126 0038 1A75     		strb	r2, [r3, #20]
ARM GAS  C:\Users\siman\AppData\Local\Temp\ccccThye.s 			page 4


 127              	.L8:
  46:indicator_app.c ****     }
  47:indicator_app.c ****     
  48:indicator_app.c ****     if (left_button->state == BUTTON_PRESSED && (current_time - left_press_start) >= 10) {
 128              		.loc 1 48 0
 129 003a 3DB9     		cbnz	r5, .L9
 130              		.loc 1 48 0 is_stmt 0 discriminator 1
 131 003c 5A4B     		ldr	r3, .L30
 132 003e 9B68     		ldr	r3, [r3, #8]
 133 0040 E31A     		subs	r3, r4, r3
 134 0042 092B     		cmp	r3, #9
 135 0044 02D9     		bls	.L9
  49:indicator_app.c ****         left_held = true;
 136              		.loc 1 49 0 is_stmt 1
 137 0046 0122     		movs	r2, #1
 138 0048 574B     		ldr	r3, .L30
 139 004a 1A73     		strb	r2, [r3, #12]
 140              	.L9:
  50:indicator_app.c ****     }
  51:indicator_app.c ****     if (right_button->state == BUTTON_PRESSED && (current_time - right_press_start) >= 10) {
 141              		.loc 1 51 0
 142 004c 38B9     		cbnz	r0, .L10
 143              		.loc 1 51 0 is_stmt 0 discriminator 1
 144 004e 564B     		ldr	r3, .L30
 145 0050 1B69     		ldr	r3, [r3, #16]
 146 0052 E31A     		subs	r3, r4, r3
 147 0054 092B     		cmp	r3, #9
 148 0056 02D9     		bls	.L10
  52:indicator_app.c ****         right_held = true;
 149              		.loc 1 52 0 is_stmt 1
 150 0058 0122     		movs	r2, #1
 151 005a 534B     		ldr	r3, .L30
 152 005c 1A75     		strb	r2, [r3, #20]
 153              	.L10:
  53:indicator_app.c ****     }
  54:indicator_app.c ****     
  55:indicator_app.c ****     // Indicator logic
  56:indicator_app.c ****     if (left_held && right_held) {
 154              		.loc 1 56 0
 155 005e 524B     		ldr	r3, .L30
 156 0060 1B7B     		ldrb	r3, [r3, #12]	@ zero_extendqisi2
 157 0062 23B3     		cbz	r3, .L11
 158              		.loc 1 56 0 is_stmt 0 discriminator 1
 159 0064 504A     		ldr	r2, .L30
 160 0066 127D     		ldrb	r2, [r2, #20]	@ zero_extendqisi2
 161 0068 0AB3     		cbz	r2, .L11
  57:indicator_app.c ****         if (hazard_active) {
 162              		.loc 1 57 0 is_stmt 1
 163 006a 4F4B     		ldr	r3, .L30
 164 006c 9B78     		ldrb	r3, [r3, #2]	@ zero_extendqisi2
 165 006e 83B1     		cbz	r3, .L12
  58:indicator_app.c ****             hazard_active = false;
 166              		.loc 1 58 0
 167 0070 4D4B     		ldr	r3, .L30
 168 0072 0025     		movs	r5, #0
 169 0074 9D70     		strb	r5, [r3, #2]
  59:indicator_app.c ****             left_indicator_active = false;
ARM GAS  C:\Users\siman\AppData\Local\Temp\ccccThye.s 			page 5


 170              		.loc 1 59 0
 171 0076 1D70     		strb	r5, [r3]
  60:indicator_app.c ****             right_indicator_active = false;
 172              		.loc 1 60 0
 173 0078 5D70     		strb	r5, [r3, #1]
  61:indicator_app.c ****             PWM_SetState(PWM_LEFT, 0);
 174              		.loc 1 61 0
 175 007a 2946     		mov	r1, r5
 176 007c 2846     		mov	r0, r5
 177 007e FFF7FEFF 		bl	PWM_SetState
 178              	.LVL11:
  62:indicator_app.c ****             PWM_SetState(PWM_RIGHT, 0);
 179              		.loc 1 62 0
 180 0082 2946     		mov	r1, r5
 181 0084 0120     		movs	r0, #1
 182 0086 FFF7FEFF 		bl	PWM_SetState
 183              	.LVL12:
  63:indicator_app.c ****             UART_Log("Hazard OFF");
 184              		.loc 1 63 0
 185 008a 4848     		ldr	r0, .L30+4
 186 008c FFF7FEFF 		bl	UART_Log
 187              	.LVL13:
 188 0090 08E0     		b	.L13
 189              	.L12:
  64:indicator_app.c ****         } else {
  65:indicator_app.c ****             hazard_active = true;
 190              		.loc 1 65 0
 191 0092 454B     		ldr	r3, .L30
 192 0094 0122     		movs	r2, #1
 193 0096 9A70     		strb	r2, [r3, #2]
  66:indicator_app.c ****             left_indicator_active = false;
 194              		.loc 1 66 0
 195 0098 0022     		movs	r2, #0
 196 009a 1A70     		strb	r2, [r3]
  67:indicator_app.c ****             right_indicator_active = false;
 197              		.loc 1 67 0
 198 009c 5A70     		strb	r2, [r3, #1]
  68:indicator_app.c ****             UART_Log("Hazard ON");
 199              		.loc 1 68 0
 200 009e 4448     		ldr	r0, .L30+8
 201 00a0 FFF7FEFF 		bl	UART_Log
 202              	.LVL14:
 203              	.L13:
  69:indicator_app.c ****         }
  70:indicator_app.c ****         left_held = false;
 204              		.loc 1 70 0
 205 00a4 404B     		ldr	r3, .L30
 206 00a6 0022     		movs	r2, #0
 207 00a8 1A73     		strb	r2, [r3, #12]
  71:indicator_app.c ****         right_held = false;
 208              		.loc 1 71 0
 209 00aa 1A75     		strb	r2, [r3, #20]
 210 00ac 5EE0     		b	.L14
 211              	.L11:
  72:indicator_app.c ****     } else if (left_held) {
 212              		.loc 1 72 0
 213 00ae 63B3     		cbz	r3, .L15
ARM GAS  C:\Users\siman\AppData\Local\Temp\ccccThye.s 			page 6


  73:indicator_app.c ****         if (hazard_active) {
 214              		.loc 1 73 0
 215 00b0 3D4B     		ldr	r3, .L30
 216 00b2 9B78     		ldrb	r3, [r3, #2]	@ zero_extendqisi2
 217 00b4 73B1     		cbz	r3, .L16
  74:indicator_app.c ****             hazard_active = false;
 218              		.loc 1 74 0
 219 00b6 3C4B     		ldr	r3, .L30
 220 00b8 0021     		movs	r1, #0
 221 00ba 9970     		strb	r1, [r3, #2]
  75:indicator_app.c ****             left_indicator_active = true;
 222              		.loc 1 75 0
 223 00bc 0120     		movs	r0, #1
 224 00be 1870     		strb	r0, [r3]
  76:indicator_app.c ****             right_indicator_active = false;
 225              		.loc 1 76 0
 226 00c0 5970     		strb	r1, [r3, #1]
  77:indicator_app.c ****             PWM_SetState(PWM_RIGHT, 0);
 227              		.loc 1 77 0
 228 00c2 FFF7FEFF 		bl	PWM_SetState
 229              	.LVL15:
  78:indicator_app.c ****             UART_Log("Hazard OFF");
 230              		.loc 1 78 0
 231 00c6 3948     		ldr	r0, .L30+4
 232 00c8 FFF7FEFF 		bl	UART_Log
 233              	.LVL16:
  79:indicator_app.c ****             UART_Log("Left Indicator ON");
 234              		.loc 1 79 0
 235 00cc 3948     		ldr	r0, .L30+12
 236 00ce FFF7FEFF 		bl	UART_Log
 237              	.LVL17:
 238 00d2 16E0     		b	.L17
 239              	.L16:
  80:indicator_app.c ****         } else if (left_indicator_active) {
 240              		.loc 1 80 0
 241 00d4 344B     		ldr	r3, .L30
 242 00d6 1B78     		ldrb	r3, [r3]	@ zero_extendqisi2
 243 00d8 4BB1     		cbz	r3, .L18
  81:indicator_app.c ****             left_indicator_active = false;
 244              		.loc 1 81 0
 245 00da 0020     		movs	r0, #0
 246 00dc 324B     		ldr	r3, .L30
 247 00de 1870     		strb	r0, [r3]
  82:indicator_app.c ****             PWM_SetState(PWM_LEFT, 0);
 248              		.loc 1 82 0
 249 00e0 0146     		mov	r1, r0
 250 00e2 FFF7FEFF 		bl	PWM_SetState
 251              	.LVL18:
  83:indicator_app.c ****             UART_Log("Left Indicator OFF");
 252              		.loc 1 83 0
 253 00e6 3448     		ldr	r0, .L30+16
 254 00e8 FFF7FEFF 		bl	UART_Log
 255              	.LVL19:
 256 00ec 09E0     		b	.L17
 257              	.L18:
  84:indicator_app.c ****         } else {
  85:indicator_app.c ****             left_indicator_active = true;
ARM GAS  C:\Users\siman\AppData\Local\Temp\ccccThye.s 			page 7


 258              		.loc 1 85 0
 259 00ee 2E4B     		ldr	r3, .L30
 260 00f0 0120     		movs	r0, #1
 261 00f2 1870     		strb	r0, [r3]
  86:indicator_app.c ****             right_indicator_active = false;
 262              		.loc 1 86 0
 263 00f4 0021     		movs	r1, #0
 264 00f6 5970     		strb	r1, [r3, #1]
  87:indicator_app.c ****             PWM_SetState(PWM_RIGHT, 0);
 265              		.loc 1 87 0
 266 00f8 FFF7FEFF 		bl	PWM_SetState
 267              	.LVL20:
  88:indicator_app.c ****             UART_Log("Left Indicator ON");
 268              		.loc 1 88 0
 269 00fc 2D48     		ldr	r0, .L30+12
 270 00fe FFF7FEFF 		bl	UART_Log
 271              	.LVL21:
 272              	.L17:
  89:indicator_app.c ****         }
  90:indicator_app.c ****         left_held = false;
 273              		.loc 1 90 0
 274 0102 0022     		movs	r2, #0
 275 0104 284B     		ldr	r3, .L30
 276 0106 1A73     		strb	r2, [r3, #12]
 277 0108 30E0     		b	.L14
 278              	.L15:
  91:indicator_app.c ****     } else if (right_held) {
 279              		.loc 1 91 0
 280 010a 274B     		ldr	r3, .L30
 281 010c 1B7D     		ldrb	r3, [r3, #20]	@ zero_extendqisi2
 282 010e 6BB3     		cbz	r3, .L14
  92:indicator_app.c ****         if (hazard_active) {
 283              		.loc 1 92 0
 284 0110 254B     		ldr	r3, .L30
 285 0112 9B78     		ldrb	r3, [r3, #2]	@ zero_extendqisi2
 286 0114 7BB1     		cbz	r3, .L19
  93:indicator_app.c ****             hazard_active = false;
 287              		.loc 1 93 0
 288 0116 244B     		ldr	r3, .L30
 289 0118 0020     		movs	r0, #0
 290 011a 9870     		strb	r0, [r3, #2]
  94:indicator_app.c ****             left_indicator_active = false;
 291              		.loc 1 94 0
 292 011c 1870     		strb	r0, [r3]
  95:indicator_app.c ****             right_indicator_active = true;
 293              		.loc 1 95 0
 294 011e 0122     		movs	r2, #1
 295 0120 5A70     		strb	r2, [r3, #1]
  96:indicator_app.c ****             PWM_SetState(PWM_LEFT, 0);
 296              		.loc 1 96 0
 297 0122 0146     		mov	r1, r0
 298 0124 FFF7FEFF 		bl	PWM_SetState
 299              	.LVL22:
  97:indicator_app.c ****             UART_Log("Hazard OFF");
 300              		.loc 1 97 0
 301 0128 2048     		ldr	r0, .L30+4
 302 012a FFF7FEFF 		bl	UART_Log
ARM GAS  C:\Users\siman\AppData\Local\Temp\ccccThye.s 			page 8


 303              	.LVL23:
  98:indicator_app.c ****             UART_Log("Right Indicator ON");
 304              		.loc 1 98 0
 305 012e 2348     		ldr	r0, .L30+20
 306 0130 FFF7FEFF 		bl	UART_Log
 307              	.LVL24:
 308 0134 17E0     		b	.L20
 309              	.L19:
  99:indicator_app.c ****         } else if (right_indicator_active) {
 310              		.loc 1 99 0
 311 0136 1C4B     		ldr	r3, .L30
 312 0138 5B78     		ldrb	r3, [r3, #1]	@ zero_extendqisi2
 313 013a 4BB1     		cbz	r3, .L21
 100:indicator_app.c ****             right_indicator_active = false;
 314              		.loc 1 100 0
 315 013c 0021     		movs	r1, #0
 316 013e 1A4B     		ldr	r3, .L30
 317 0140 5970     		strb	r1, [r3, #1]
 101:indicator_app.c ****             PWM_SetState(PWM_RIGHT, 0);
 318              		.loc 1 101 0
 319 0142 0120     		movs	r0, #1
 320 0144 FFF7FEFF 		bl	PWM_SetState
 321              	.LVL25:
 102:indicator_app.c ****             UART_Log("Right Indicator OFF");
 322              		.loc 1 102 0
 323 0148 1D48     		ldr	r0, .L30+24
 324 014a FFF7FEFF 		bl	UART_Log
 325              	.LVL26:
 326 014e 0AE0     		b	.L20
 327              	.L21:
 103:indicator_app.c ****         } else {
 104:indicator_app.c ****             right_indicator_active = true;
 328              		.loc 1 104 0
 329 0150 154B     		ldr	r3, .L30
 330 0152 0122     		movs	r2, #1
 331 0154 5A70     		strb	r2, [r3, #1]
 105:indicator_app.c ****             left_indicator_active = false;
 332              		.loc 1 105 0
 333 0156 0020     		movs	r0, #0
 334 0158 1870     		strb	r0, [r3]
 106:indicator_app.c ****             PWM_SetState(PWM_LEFT, 0);
 335              		.loc 1 106 0
 336 015a 0146     		mov	r1, r0
 337 015c FFF7FEFF 		bl	PWM_SetState
 338              	.LVL27:
 107:indicator_app.c ****             UART_Log("Right Indicator ON");
 339              		.loc 1 107 0
 340 0160 1648     		ldr	r0, .L30+20
 341 0162 FFF7FEFF 		bl	UART_Log
 342              	.LVL28:
 343              	.L20:
 108:indicator_app.c ****         }
 109:indicator_app.c ****         right_held = false;
 344              		.loc 1 109 0
 345 0166 0022     		movs	r2, #0
 346 0168 0F4B     		ldr	r3, .L30
 347 016a 1A75     		strb	r2, [r3, #20]
ARM GAS  C:\Users\siman\AppData\Local\Temp\ccccThye.s 			page 9


 348              	.L14:
 110:indicator_app.c ****     }
 111:indicator_app.c ****     
 112:indicator_app.c ****     // Toggle LEDs every 300 msec (3 ticks)
 113:indicator_app.c ****     if ((current_time - last_toggle_time) >= 3) {
 349              		.loc 1 113 0
 350 016c 0E4B     		ldr	r3, .L30
 351 016e 5B68     		ldr	r3, [r3, #4]
 352 0170 E31A     		subs	r3, r4, r3
 353 0172 022B     		cmp	r3, #2
 354 0174 17D9     		bls	.L4
 114:indicator_app.c ****         last_toggle_time = current_time;
 355              		.loc 1 114 0
 356 0176 0C4B     		ldr	r3, .L30
 357 0178 5C60     		str	r4, [r3, #4]
 115:indicator_app.c ****         if (hazard_active) {
 358              		.loc 1 115 0
 359 017a 9B78     		ldrb	r3, [r3, #2]	@ zero_extendqisi2
 360 017c 33B1     		cbz	r3, .L23
 116:indicator_app.c ****             PWM_Toggle(PWM_LEFT);
 361              		.loc 1 116 0
 362 017e 0020     		movs	r0, #0
 363 0180 FFF7FEFF 		bl	PWM_Toggle
 364              	.LVL29:
 117:indicator_app.c ****             PWM_Toggle(PWM_RIGHT);
 365              		.loc 1 117 0
 366 0184 0120     		movs	r0, #1
 367 0186 FFF7FEFF 		bl	PWM_Toggle
 368              	.LVL30:
 369 018a 38BD     		pop	{r3, r4, r5, pc}
 370              	.LVL31:
 371              	.L23:
 118:indicator_app.c ****         } else if (left_indicator_active) {
 372              		.loc 1 118 0
 373 018c 064B     		ldr	r3, .L30
 374 018e 1B78     		ldrb	r3, [r3]	@ zero_extendqisi2
 375 0190 1BB1     		cbz	r3, .L24
 119:indicator_app.c ****             PWM_Toggle(PWM_LEFT);
 376              		.loc 1 119 0
 377 0192 0020     		movs	r0, #0
 378 0194 FFF7FEFF 		bl	PWM_Toggle
 379              	.LVL32:
 380 0198 38BD     		pop	{r3, r4, r5, pc}
 381              	.LVL33:
 382              	.L24:
 120:indicator_app.c ****         } else if (right_indicator_active) {
 383              		.loc 1 120 0
 384 019a 034B     		ldr	r3, .L30
 385 019c 5B78     		ldrb	r3, [r3, #1]	@ zero_extendqisi2
 386 019e 13B1     		cbz	r3, .L4
 121:indicator_app.c ****             PWM_Toggle(PWM_RIGHT);
 387              		.loc 1 121 0
 388 01a0 0120     		movs	r0, #1
 389 01a2 FFF7FEFF 		bl	PWM_Toggle
 390              	.LVL34:
 391              	.L4:
 392 01a6 38BD     		pop	{r3, r4, r5, pc}
ARM GAS  C:\Users\siman\AppData\Local\Temp\ccccThye.s 			page 10


 393              	.LVL35:
 394              	.L31:
 395              		.align	2
 396              	.L30:
 397 01a8 00000000 		.word	.LANCHOR0
 398 01ac 00000000 		.word	.LC0
 399 01b0 0C000000 		.word	.LC1
 400 01b4 18000000 		.word	.LC2
 401 01b8 2C000000 		.word	.LC3
 402 01bc 40000000 		.word	.LC4
 403 01c0 54000000 		.word	.LC5
 404              		.cfi_endproc
 405              	.LFE64:
 406              		.size	IndicatorApp_Run, .-IndicatorApp_Run
 407              		.section	.rodata.str1.4,"aMS",%progbits,1
 408              		.align	2
 409              	.LC0:
 410 0000 48617A61 		.ascii	"Hazard OFF\000"
 410      7264204F 
 410      464600
 411 000b 00       		.space	1
 412              	.LC1:
 413 000c 48617A61 		.ascii	"Hazard ON\000"
 413      7264204F 
 413      4E00
 414 0016 0000     		.space	2
 415              	.LC2:
 416 0018 4C656674 		.ascii	"Left Indicator ON\000"
 416      20496E64 
 416      69636174 
 416      6F72204F 
 416      4E00
 417 002a 0000     		.space	2
 418              	.LC3:
 419 002c 4C656674 		.ascii	"Left Indicator OFF\000"
 419      20496E64 
 419      69636174 
 419      6F72204F 
 419      464600
 420 003f 00       		.space	1
 421              	.LC4:
 422 0040 52696768 		.ascii	"Right Indicator ON\000"
 422      7420496E 
 422      64696361 
 422      746F7220 
 422      4F4E00
 423 0053 00       		.space	1
 424              	.LC5:
 425 0054 52696768 		.ascii	"Right Indicator OFF\000"
 425      7420496E 
 425      64696361 
 425      746F7220 
 425      4F464600 
 426              		.bss
 427              		.align	2
 428              		.set	.LANCHOR0,. + 0
 429              		.type	left_indicator_active, %object
ARM GAS  C:\Users\siman\AppData\Local\Temp\ccccThye.s 			page 11


 430              		.size	left_indicator_active, 1
 431              	left_indicator_active:
 432 0000 00       		.space	1
 433              		.type	right_indicator_active, %object
 434              		.size	right_indicator_active, 1
 435              	right_indicator_active:
 436 0001 00       		.space	1
 437              		.type	hazard_active, %object
 438              		.size	hazard_active, 1
 439              	hazard_active:
 440 0002 00       		.space	1
 441 0003 00       		.space	1
 442              		.type	last_toggle_time, %object
 443              		.size	last_toggle_time, 4
 444              	last_toggle_time:
 445 0004 00000000 		.space	4
 446              		.type	left_press_start.5956, %object
 447              		.size	left_press_start.5956, 4
 448              	left_press_start.5956:
 449 0008 00000000 		.space	4
 450              		.type	left_held.5958, %object
 451              		.size	left_held.5958, 1
 452              	left_held.5958:
 453 000c 00       		.space	1
 454 000d 000000   		.space	3
 455              		.type	right_press_start.5957, %object
 456              		.size	right_press_start.5957, 4
 457              	right_press_start.5957:
 458 0010 00000000 		.space	4
 459              		.type	right_held.5959, %object
 460              		.size	right_held.5959, 1
 461              	right_held.5959:
 462 0014 00       		.space	1
 463              		.text
 464              	.Letext0:
 465              		.file 2 "c:\\program files (x86)\\cypress\\psoc creator\\4.4\\psoc creator\\import\\gnu\\arm\\5.4.
 466              		.file 3 "c:\\program files (x86)\\cypress\\psoc creator\\4.4\\psoc creator\\import\\gnu\\arm\\5.4.
 467              		.file 4 "gpio_driver.h"
 468              		.file 5 "pwm_driver.h"
 469              		.file 6 "uart_driver.h"
 470              		.file 7 "Generated_Source\\PSoC5/core_cm3.h"