ARM GAS  C:\Users\siman\AppData\Local\Temp\cctBerXZ.s 			page 1


   1              		.syntax unified
   2              		.cpu cortex-m3
   3              		.fpu softvfp
   4              		.eabi_attribute 20, 1
   5              		.eabi_attribute 21, 1
   6              		.eabi_attribute 23, 3
   7              		.eabi_attribute 24, 1
   8              		.eabi_attribute 25, 1
   9              		.eabi_attribute 26, 1
  10              		.eabi_attribute 30, 1
  11              		.eabi_attribute 34, 1
  12              		.eabi_attribute 18, 4
  13              		.thumb
  14              		.syntax unified
  15              		.file	"pwm_driver.c"
  16              		.text
  17              	.Ltext0:
  18              		.cfi_sections	.debug_frame
  19              		.section	.text.PWM_SetState,"ax",%progbits
  20              		.align	2
  21              		.global	PWM_SetState
  22              		.thumb
  23              		.thumb_func
  24              		.type	PWM_SetState, %function
  25              	PWM_SetState:
  26              	.LFB64:
  27              		.file 1 "pwm_driver.c"
   1:pwm_driver.c  **** /* ========================================
   2:pwm_driver.c  ****  *
   3:pwm_driver.c  ****  * Copyright YOUR COMPANY, THE YEAR
   4:pwm_driver.c  ****  * All Rights Reserved
   5:pwm_driver.c  ****  * UNPUBLISHED, LICENSED SOFTWARE.
   6:pwm_driver.c  ****  *
   7:pwm_driver.c  ****  * CONFIDENTIAL AND PROPRIETARY INFORMATION
   8:pwm_driver.c  ****  * WHICH IS THE PROPERTY OF your company.
   9:pwm_driver.c  ****  *
  10:pwm_driver.c  ****  * ========================================
  11:pwm_driver.c  **** */
  12:pwm_driver.c  **** #include "pwm_driver.h"
  13:pwm_driver.c  **** #include "uart_driver.h"
  14:pwm_driver.c  **** 
  15:pwm_driver.c  **** static uint8_t left_led_state = 0;
  16:pwm_driver.c  **** static uint8_t right_led_state = 0;
  17:pwm_driver.c  **** 
  18:pwm_driver.c  **** void PWM_Init(void) {
  19:pwm_driver.c  ****     PWM_SetState(PWM_LEFT, 0);
  20:pwm_driver.c  ****     PWM_SetState(PWM_RIGHT, 0);
  21:pwm_driver.c  **** }
  22:pwm_driver.c  **** 
  23:pwm_driver.c  **** void PWM_SetState(uint8_t channel, uint8_t state) {
  28              		.loc 1 23 0
  29              		.cfi_startproc
  30              		@ args = 0, pretend = 0, frame = 0
  31              		@ frame_needed = 0, uses_anonymous_args = 0
  32              	.LVL0:
  33 0000 08B5     		push	{r3, lr}
  34              		.cfi_def_cfa_offset 8
ARM GAS  C:\Users\siman\AppData\Local\Temp\cctBerXZ.s 			page 2


  35              		.cfi_offset 3, -8
  36              		.cfi_offset 14, -4
  24:pwm_driver.c  ****     if (channel == PWM_LEFT) {
  37              		.loc 1 24 0
  38 0002 60B9     		cbnz	r0, .L2
  25:pwm_driver.c  ****         if (left_led_state != state) {
  39              		.loc 1 25 0
  40 0004 0D4B     		ldr	r3, .L9
  41 0006 1B78     		ldrb	r3, [r3]	@ zero_extendqisi2
  42 0008 8B42     		cmp	r3, r1
  43 000a 16D0     		beq	.L1
  26:pwm_driver.c  ****             left_led_state = state;
  44              		.loc 1 26 0
  45 000c 0B4B     		ldr	r3, .L9
  46 000e 1970     		strb	r1, [r3]
  27:pwm_driver.c  ****             UART_Log(state ? "Left LED: ON" : "Left LED: OFF");
  47              		.loc 1 27 0
  48 0010 09B1     		cbz	r1, .L6
  49 0012 0B48     		ldr	r0, .L9+4
  50              	.LVL1:
  51 0014 00E0     		b	.L4
  52              	.LVL2:
  53              	.L6:
  54 0016 0B48     		ldr	r0, .L9+8
  55              	.LVL3:
  56              	.L4:
  57              		.loc 1 27 0 is_stmt 0 discriminator 4
  58 0018 FFF7FEFF 		bl	UART_Log
  59              	.LVL4:
  60 001c 08BD     		pop	{r3, pc}
  61              	.LVL5:
  62              	.L2:
  28:pwm_driver.c  ****         }
  29:pwm_driver.c  ****     } else if (channel == PWM_RIGHT) {
  63              		.loc 1 29 0 is_stmt 1
  64 001e 0128     		cmp	r0, #1
  65 0020 0BD1     		bne	.L1
  30:pwm_driver.c  ****         if (right_led_state != state) {
  66              		.loc 1 30 0
  67 0022 064B     		ldr	r3, .L9
  68 0024 5B78     		ldrb	r3, [r3, #1]	@ zero_extendqisi2
  69 0026 9942     		cmp	r1, r3
  70 0028 07D0     		beq	.L1
  31:pwm_driver.c  ****             right_led_state = state;
  71              		.loc 1 31 0
  72 002a 044B     		ldr	r3, .L9
  73 002c 5970     		strb	r1, [r3, #1]
  32:pwm_driver.c  ****             UART_Log(state ? "Right LED: ON" : "Right LED: OFF");
  74              		.loc 1 32 0
  75 002e 09B1     		cbz	r1, .L7
  76 0030 0548     		ldr	r0, .L9+12
  77              	.LVL6:
  78 0032 00E0     		b	.L5
  79              	.LVL7:
  80              	.L7:
  81 0034 0548     		ldr	r0, .L9+16
  82              	.LVL8:
ARM GAS  C:\Users\siman\AppData\Local\Temp\cctBerXZ.s 			page 3


  83              	.L5:
  84              		.loc 1 32 0 is_stmt 0 discriminator 4
  85 0036 FFF7FEFF 		bl	UART_Log
  86              	.LVL9:
  87              	.L1:
  88 003a 08BD     		pop	{r3, pc}
  89              	.L10:
  90              		.align	2
  91              	.L9:
  92 003c 00000000 		.word	.LANCHOR0
  93 0040 00000000 		.word	.LC0
  94 0044 10000000 		.word	.LC1
  95 0048 20000000 		.word	.LC2
  96 004c 30000000 		.word	.LC3
  97              		.cfi_endproc
  98              	.LFE64:
  99              		.size	PWM_SetState, .-PWM_SetState
 100              		.section	.text.PWM_Init,"ax",%progbits
 101              		.align	2
 102              		.global	PWM_Init
 103              		.thumb
 104              		.thumb_func
 105              		.type	PWM_Init, %function
 106              	PWM_Init:
 107              	.LFB63:
  18:pwm_driver.c  ****     PWM_SetState(PWM_LEFT, 0);
 108              		.loc 1 18 0 is_stmt 1
 109              		.cfi_startproc
 110              		@ args = 0, pretend = 0, frame = 0
 111              		@ frame_needed = 0, uses_anonymous_args = 0
 112 0000 08B5     		push	{r3, lr}
 113              		.cfi_def_cfa_offset 8
 114              		.cfi_offset 3, -8
 115              		.cfi_offset 14, -4
  19:pwm_driver.c  ****     PWM_SetState(PWM_RIGHT, 0);
 116              		.loc 1 19 0
 117 0002 0021     		movs	r1, #0
 118 0004 0846     		mov	r0, r1
 119 0006 FFF7FEFF 		bl	PWM_SetState
 120              	.LVL10:
  20:pwm_driver.c  **** }
 121              		.loc 1 20 0
 122 000a 0021     		movs	r1, #0
 123 000c 0120     		movs	r0, #1
 124 000e FFF7FEFF 		bl	PWM_SetState
 125              	.LVL11:
 126 0012 08BD     		pop	{r3, pc}
 127              		.cfi_endproc
 128              	.LFE63:
 129              		.size	PWM_Init, .-PWM_Init
 130              		.section	.text.PWM_Toggle,"ax",%progbits
 131              		.align	2
 132              		.global	PWM_Toggle
 133              		.thumb
 134              		.thumb_func
 135              		.type	PWM_Toggle, %function
 136              	PWM_Toggle:
ARM GAS  C:\Users\siman\AppData\Local\Temp\cctBerXZ.s 			page 4


 137              	.LFB65:
  33:pwm_driver.c  ****         }
  34:pwm_driver.c  ****     }
  35:pwm_driver.c  **** }
  36:pwm_driver.c  **** 
  37:pwm_driver.c  **** void PWM_Toggle(uint8_t channel) {
 138              		.loc 1 37 0
 139              		.cfi_startproc
 140              		@ args = 0, pretend = 0, frame = 0
 141              		@ frame_needed = 0, uses_anonymous_args = 0
 142              	.LVL12:
 143 0000 08B5     		push	{r3, lr}
 144              		.cfi_def_cfa_offset 8
 145              		.cfi_offset 3, -8
 146              		.cfi_offset 14, -4
  38:pwm_driver.c  ****     if (channel == PWM_LEFT) {
 147              		.loc 1 38 0
 148 0002 60B9     		cbnz	r0, .L14
  39:pwm_driver.c  ****         left_led_state = !left_led_state;
 149              		.loc 1 39 0
 150 0004 0D4A     		ldr	r2, .L21
 151 0006 1378     		ldrb	r3, [r2]	@ zero_extendqisi2
 152 0008 B3FA83F3 		clz	r3, r3
 153 000c 5B09     		lsrs	r3, r3, #5
 154 000e 1370     		strb	r3, [r2]
  40:pwm_driver.c  ****         UART_Log(left_led_state ? "Left LED: ON (Toggled)" : "Left LED: OFF (Toggled)");
 155              		.loc 1 40 0
 156 0010 0BB1     		cbz	r3, .L18
 157 0012 0B48     		ldr	r0, .L21+4
 158              	.LVL13:
 159 0014 00E0     		b	.L15
 160              	.LVL14:
 161              	.L18:
 162 0016 0B48     		ldr	r0, .L21+8
 163              	.LVL15:
 164              	.L15:
 165              		.loc 1 40 0 is_stmt 0 discriminator 4
 166 0018 FFF7FEFF 		bl	UART_Log
 167              	.LVL16:
 168 001c 08BD     		pop	{r3, pc}
 169              	.LVL17:
 170              	.L14:
  41:pwm_driver.c  ****     } else if (channel == PWM_RIGHT) {
 171              		.loc 1 41 0 is_stmt 1
 172 001e 0128     		cmp	r0, #1
 173 0020 0BD1     		bne	.L13
  42:pwm_driver.c  ****         right_led_state = !right_led_state;
 174              		.loc 1 42 0
 175 0022 064A     		ldr	r2, .L21
 176 0024 5378     		ldrb	r3, [r2, #1]	@ zero_extendqisi2
 177 0026 B3FA83F3 		clz	r3, r3
 178 002a 5B09     		lsrs	r3, r3, #5
 179 002c 5370     		strb	r3, [r2, #1]
  43:pwm_driver.c  ****         UART_Log(right_led_state ? "Right LED: ON (Toggled)" : "Right LED: OFF (Toggled)");
 180              		.loc 1 43 0
 181 002e 0BB1     		cbz	r3, .L19
 182 0030 0548     		ldr	r0, .L21+12
ARM GAS  C:\Users\siman\AppData\Local\Temp\cctBerXZ.s 			page 5


 183              	.LVL18:
 184 0032 00E0     		b	.L17
 185              	.LVL19:
 186              	.L19:
 187 0034 0548     		ldr	r0, .L21+16
 188              	.LVL20:
 189              	.L17:
 190              		.loc 1 43 0 is_stmt 0 discriminator 4
 191 0036 FFF7FEFF 		bl	UART_Log
 192              	.LVL21:
 193              	.L13:
 194 003a 08BD     		pop	{r3, pc}
 195              	.L22:
 196              		.align	2
 197              	.L21:
 198 003c 00000000 		.word	.LANCHOR0
 199 0040 40000000 		.word	.LC4
 200 0044 58000000 		.word	.LC5
 201 0048 70000000 		.word	.LC6
 202 004c 88000000 		.word	.LC7
 203              		.cfi_endproc
 204              	.LFE65:
 205              		.size	PWM_Toggle, .-PWM_Toggle
 206              		.section	.text.PWM_GetState,"ax",%progbits
 207              		.align	2
 208              		.global	PWM_GetState
 209              		.thumb
 210              		.thumb_func
 211              		.type	PWM_GetState, %function
 212              	PWM_GetState:
 213              	.LFB66:
  44:pwm_driver.c  ****     }
  45:pwm_driver.c  **** }
  46:pwm_driver.c  **** 
  47:pwm_driver.c  **** uint8_t PWM_GetState(uint8_t channel) {
 214              		.loc 1 47 0 is_stmt 1
 215              		.cfi_startproc
 216              		@ args = 0, pretend = 0, frame = 0
 217              		@ frame_needed = 0, uses_anonymous_args = 0
 218              		@ link register save eliminated.
 219              	.LVL22:
  48:pwm_driver.c  ****     return (channel == PWM_LEFT) ? left_led_state : right_led_state;
 220              		.loc 1 48 0
 221 0000 10B9     		cbnz	r0, .L24
 222              		.loc 1 48 0 is_stmt 0 discriminator 1
 223 0002 034B     		ldr	r3, .L26
 224 0004 1878     		ldrb	r0, [r3]	@ zero_extendqisi2
 225              	.LVL23:
 226 0006 7047     		bx	lr
 227              	.LVL24:
 228              	.L24:
 229              		.loc 1 48 0 discriminator 2
 230 0008 014B     		ldr	r3, .L26
 231 000a 5878     		ldrb	r0, [r3, #1]	@ zero_extendqisi2
 232              	.LVL25:
  49:pwm_driver.c  **** }
 233              		.loc 1 49 0 is_stmt 1 discriminator 2
ARM GAS  C:\Users\siman\AppData\Local\Temp\cctBerXZ.s 			page 6


 234 000c 7047     		bx	lr
 235              	.L27:
 236 000e 00BF     		.align	2
 237              	.L26:
 238 0010 00000000 		.word	.LANCHOR0
 239              		.cfi_endproc
 240              	.LFE66:
 241              		.size	PWM_GetState, .-PWM_GetState
 242              		.section	.rodata.str1.4,"aMS",%progbits,1
 243              		.align	2
 244              	.LC0:
 245 0000 4C656674 		.ascii	"Left LED: ON\000"
 245      204C4544 
 245      3A204F4E 
 245      00
 246 000d 000000   		.space	3
 247              	.LC1:
 248 0010 4C656674 		.ascii	"Left LED: OFF\000"
 248      204C4544 
 248      3A204F46 
 248      4600
 249 001e 0000     		.space	2
 250              	.LC2:
 251 0020 52696768 		.ascii	"Right LED: ON\000"
 251      74204C45 
 251      443A204F 
 251      4E00
 252 002e 0000     		.space	2
 253              	.LC3:
 254 0030 52696768 		.ascii	"Right LED: OFF\000"
 254      74204C45 
 254      443A204F 
 254      464600
 255 003f 00       		.space	1
 256              	.LC4:
 257 0040 4C656674 		.ascii	"Left LED: ON (Toggled)\000"
 257      204C4544 
 257      3A204F4E 
 257      2028546F 
 257      67676C65 
 258 0057 00       		.space	1
 259              	.LC5:
 260 0058 4C656674 		.ascii	"Left LED: OFF (Toggled)\000"
 260      204C4544 
 260      3A204F46 
 260      46202854 
 260      6F67676C 
 261              	.LC6:
 262 0070 52696768 		.ascii	"Right LED: ON (Toggled)\000"
 262      74204C45 
 262      443A204F 
 262      4E202854 
 262      6F67676C 
 263              	.LC7:
 264 0088 52696768 		.ascii	"Right LED: OFF (Toggled)\000"
 264      74204C45 
 264      443A204F 
ARM GAS  C:\Users\siman\AppData\Local\Temp\cctBerXZ.s 			page 7


 264      46462028 
 264      546F6767 
 265              		.bss
 266              		.set	.LANCHOR0,. + 0
 267              		.type	left_led_state, %object
 268              		.size	left_led_state, 1
 269              	left_led_state:
 270 0000 00       		.space	1
 271              		.type	right_led_state, %object
 272              		.size	right_led_state, 1
 273              	right_led_state:
 274 0001 00       		.space	1
 275              		.text
 276              	.Letext0:
 277              		.file 2 "c:\\program files (x86)\\cypress\\psoc creator\\4.4\\psoc creator\\import\\gnu\\arm\\5.4.
 278              		.file 3 "c:\\program files (x86)\\cypress\\psoc creator\\4.4\\psoc creator\\import\\gnu\\arm\\5.4.
 279              		.file 4 "Generated_Source\\PSoC5/core_cm3.h"
 280              		.file 5 "uart_driver.h"