ARM GAS  C:\Users\siman\AppData\Local\Temp\ccunjMgg.s 			page 1


   1              		.syntax unified
   2              		.cpu cortex-m3
   3              		.fpu softvfp
   4              		.eabi_attribute 20, 1
   5              		.eabi_attribute 21, 1
   6              		.eabi_attribute 23, 3
   7              		.eabi_attribute 24, 1
   8              		.eabi_attribute 25, 1
   9              		.eabi_attribute 26, 1
  10              		.eabi_attribute 30, 1
  11              		.eabi_attribute 34, 1
  12              		.eabi_attribute 18, 4
  13              		.thumb
  14              		.syntax unified
  15              		.file	"scheduler.c"
  16              		.text
  17              	.Ltext0:
  18              		.cfi_sections	.debug_frame
  19              		.section	.text.Scheduler_Init,"ax",%progbits
  20              		.align	2
  21              		.global	Scheduler_Init
  22              		.thumb
  23              		.thumb_func
  24              		.type	Scheduler_Init, %function
  25              	Scheduler_Init:
  26              	.LFB63:
  27              		.file 1 "scheduler.c"
   1:scheduler.c   **** /* ========================================
   2:scheduler.c   ****  *
   3:scheduler.c   ****  * Copyright YOUR COMPANY, THE YEAR
   4:scheduler.c   ****  * All Rights Reserved
   5:scheduler.c   ****  * UNPUBLISHED, LICENSED SOFTWARE.
   6:scheduler.c   ****  *
   7:scheduler.c   ****  * CONFIDENTIAL AND PROPRIETARY INFORMATION
   8:scheduler.c   ****  * WHICH IS THE PROPERTY OF your company.
   9:scheduler.c   ****  *
  10:scheduler.c   ****  * ========================================
  11:scheduler.c   **** */
  12:scheduler.c   **** #include "scheduler.h"
  13:scheduler.c   **** #include "gpio_driver.h"
  14:scheduler.c   **** #include "uart_driver.h"
  15:scheduler.c   **** #include "pwm_driver.h"
  16:scheduler.c   **** #include "timer_driver.h"
  17:scheduler.c   **** #include "indicator_control_model.h"
  18:scheduler.c   **** #include <stdbool.h>
  19:scheduler.c   **** 
  20:scheduler.c   **** // Simulink model I/O variables
  21:scheduler.c   **** boolean_T left_btn;
  22:scheduler.c   **** boolean_T right_btn;
  23:scheduler.c   **** boolean_T left_led_pwm;
  24:scheduler.c   **** boolean_T right_led_pwm;
  25:scheduler.c   **** uint8_T uart_status;
  26:scheduler.c   **** 
  27:scheduler.c   **** static ButtonState left_button = {0, 0, 0};
  28:scheduler.c   **** static ButtonState right_button = {0, 0, 0};
  29:scheduler.c   **** 
  30:scheduler.c   **** void Scheduler_Init(void) {
ARM GAS  C:\Users\siman\AppData\Local\Temp\ccunjMgg.s 			page 2


  28              		.loc 1 30 0
  29              		.cfi_startproc
  30              		@ args = 0, pretend = 0, frame = 0
  31              		@ frame_needed = 0, uses_anonymous_args = 0
  32 0000 08B5     		push	{r3, lr}
  33              		.cfi_def_cfa_offset 8
  34              		.cfi_offset 3, -8
  35              		.cfi_offset 14, -4
  31:scheduler.c   ****     GPIO_Init();
  36              		.loc 1 31 0
  37 0002 FFF7FEFF 		bl	GPIO_Init
  38              	.LVL0:
  32:scheduler.c   ****     UART_Init();
  39              		.loc 1 32 0
  40 0006 FFF7FEFF 		bl	UART_Init
  41              	.LVL1:
  33:scheduler.c   ****     PWM_Init();
  42              		.loc 1 33 0
  43 000a FFF7FEFF 		bl	PWM_Init
  44              	.LVL2:
  34:scheduler.c   ****     Timer_Init();
  45              		.loc 1 34 0
  46 000e FFF7FEFF 		bl	Timer_Init
  47              	.LVL3:
  35:scheduler.c   ****     indicator_control_model_initialize();
  48              		.loc 1 35 0
  49 0012 FFF7FEFF 		bl	indicator_control_model_initialize
  50              	.LVL4:
  36:scheduler.c   ****     UART_Log("System Initialized");
  51              		.loc 1 36 0
  52 0016 0248     		ldr	r0, .L3
  53 0018 FFF7FEFF 		bl	UART_Log
  54              	.LVL5:
  55 001c 08BD     		pop	{r3, pc}
  56              	.L4:
  57 001e 00BF     		.align	2
  58              	.L3:
  59 0020 00000000 		.word	.LC0
  60              		.cfi_endproc
  61              	.LFE63:
  62              		.size	Scheduler_Init, .-Scheduler_Init
  63              		.section	.text.Scheduler_Run,"ax",%progbits
  64              		.align	2
  65              		.global	Scheduler_Run
  66              		.thumb
  67              		.thumb_func
  68              		.type	Scheduler_Run, %function
  69              	Scheduler_Run:
  70              	.LFB64:
  37:scheduler.c   **** }
  38:scheduler.c   **** 
  39:scheduler.c   **** void Scheduler_Run(void) {
  71              		.loc 1 39 0
  72              		.cfi_startproc
  73              		@ args = 0, pretend = 0, frame = 0
  74              		@ frame_needed = 0, uses_anonymous_args = 0
  75 0000 10B5     		push	{r4, lr}
ARM GAS  C:\Users\siman\AppData\Local\Temp\ccunjMgg.s 			page 3


  76              		.cfi_def_cfa_offset 8
  77              		.cfi_offset 4, -8
  78              		.cfi_offset 14, -4
  40:scheduler.c   ****     static uint32_t last_tick = 0;
  41:scheduler.c   ****     uint32_t current_tick = Timer_GetTicks();
  79              		.loc 1 41 0
  80 0002 FFF7FEFF 		bl	Timer_GetTicks
  81              	.LVL6:
  42:scheduler.c   **** 
  43:scheduler.c   ****     if (current_tick != last_tick) {
  82              		.loc 1 43 0
  83 0006 1B4B     		ldr	r3, .L10
  84 0008 1B68     		ldr	r3, [r3]
  85 000a 9842     		cmp	r0, r3
  86 000c 30D0     		beq	.L5
  44:scheduler.c   ****         last_tick = current_tick;
  87              		.loc 1 44 0
  88 000e 194C     		ldr	r4, .L10
  89 0010 2146     		mov	r1, r4
  90 0012 41F8040B 		str	r0, [r1], #4
  45:scheduler.c   **** 
  46:scheduler.c   ****         // Read buttons
  47:scheduler.c   ****         GPIO_ReadButtons(&left_button, &right_button);
  91              		.loc 1 47 0
  92 0016 04F10C00 		add	r0, r4, #12
  93              	.LVL7:
  94 001a FFF7FEFF 		bl	GPIO_ReadButtons
  95              	.LVL8:
  48:scheduler.c   **** 
  49:scheduler.c   ****         // Use button state (active-low logic)
  50:scheduler.c   ****         left_btn = (left_button.state == BUTTON_PRESSED);
  96              		.loc 1 50 0
  97 001e 237B     		ldrb	r3, [r4, #12]	@ zero_extendqisi2
  98 0020 B3FA83F3 		clz	r3, r3
  99 0024 5B09     		lsrs	r3, r3, #5
 100 0026 144A     		ldr	r2, .L10+4
 101 0028 1370     		strb	r3, [r2]
  51:scheduler.c   ****         right_btn = (right_button.state == BUTTON_PRESSED);
 102              		.loc 1 51 0
 103 002a 2379     		ldrb	r3, [r4, #4]	@ zero_extendqisi2
 104 002c B3FA83F3 		clz	r3, r3
 105 0030 5B09     		lsrs	r3, r3, #5
 106 0032 124A     		ldr	r2, .L10+8
 107 0034 1370     		strb	r3, [r2]
  52:scheduler.c   **** 
  53:scheduler.c   ****         // Call Simulink logic
  54:scheduler.c   ****         indicator_control_model_step();
 108              		.loc 1 54 0
 109 0036 FFF7FEFF 		bl	indicator_control_model_step
 110              	.LVL9:
  55:scheduler.c   **** 
  56:scheduler.c   ****         // Update LEDs
  57:scheduler.c   ****         GPIO_SetLED(LED_LEFT, left_led_pwm);
 111              		.loc 1 57 0
 112 003a 114B     		ldr	r3, .L10+12
 113 003c 1978     		ldrb	r1, [r3]	@ zero_extendqisi2
 114 003e 0020     		movs	r0, #0
ARM GAS  C:\Users\siman\AppData\Local\Temp\ccunjMgg.s 			page 4


 115 0040 FFF7FEFF 		bl	GPIO_SetLED
 116              	.LVL10:
  58:scheduler.c   ****         GPIO_SetLED(LED_RIGHT, right_led_pwm);
 117              		.loc 1 58 0
 118 0044 0F4B     		ldr	r3, .L10+16
 119 0046 1978     		ldrb	r1, [r3]	@ zero_extendqisi2
 120 0048 0120     		movs	r0, #1
 121 004a FFF7FEFF 		bl	GPIO_SetLED
 122              	.LVL11:
  59:scheduler.c   **** 
  60:scheduler.c   ****         // Log UART status
  61:scheduler.c   ****         if (uart_status == 1)
 123              		.loc 1 61 0
 124 004e 0E4B     		ldr	r3, .L10+20
 125 0050 1B78     		ldrb	r3, [r3]	@ zero_extendqisi2
 126 0052 012B     		cmp	r3, #1
 127 0054 03D1     		bne	.L7
  62:scheduler.c   ****             UART_Log("Indicator ON");
 128              		.loc 1 62 0
 129 0056 0D48     		ldr	r0, .L10+24
 130 0058 FFF7FEFF 		bl	UART_Log
 131              	.LVL12:
 132 005c 10BD     		pop	{r4, pc}
 133              	.L7:
  63:scheduler.c   ****         else if (uart_status == 2)
 134              		.loc 1 63 0
 135 005e 022B     		cmp	r3, #2
 136 0060 03D1     		bne	.L8
  64:scheduler.c   ****             UART_Log("Hazard ON");
 137              		.loc 1 64 0
 138 0062 0B48     		ldr	r0, .L10+28
 139 0064 FFF7FEFF 		bl	UART_Log
 140              	.LVL13:
 141 0068 10BD     		pop	{r4, pc}
 142              	.L8:
  65:scheduler.c   ****         else
  66:scheduler.c   ****             UART_Log("OFF");
 143              		.loc 1 66 0
 144 006a 0A48     		ldr	r0, .L10+32
 145 006c FFF7FEFF 		bl	UART_Log
 146              	.LVL14:
 147              	.L5:
 148 0070 10BD     		pop	{r4, pc}
 149              	.L11:
 150 0072 00BF     		.align	2
 151              	.L10:
 152 0074 00000000 		.word	.LANCHOR0
 153 0078 00000000 		.word	left_btn
 154 007c 00000000 		.word	right_btn
 155 0080 00000000 		.word	left_led_pwm
 156 0084 00000000 		.word	right_led_pwm
 157 0088 00000000 		.word	uart_status
 158 008c 14000000 		.word	.LC1
 159 0090 24000000 		.word	.LC2
 160 0094 30000000 		.word	.LC3
 161              		.cfi_endproc
 162              	.LFE64:
ARM GAS  C:\Users\siman\AppData\Local\Temp\ccunjMgg.s 			page 5


 163              		.size	Scheduler_Run, .-Scheduler_Run
 164              		.comm	uart_status,1,1
 165              		.comm	right_led_pwm,1,1
 166              		.comm	left_led_pwm,1,1
 167              		.comm	right_btn,1,1
 168              		.comm	left_btn,1,1
 169              		.section	.rodata.str1.4,"aMS",%progbits,1
 170              		.align	2
 171              	.LC0:
 172 0000 53797374 		.ascii	"System Initialized\000"
 172      656D2049 
 172      6E697469 
 172      616C697A 
 172      656400
 173 0013 00       		.space	1
 174              	.LC1:
 175 0014 496E6469 		.ascii	"Indicator ON\000"
 175      6361746F 
 175      72204F4E 
 175      00
 176 0021 000000   		.space	3
 177              	.LC2:
 178 0024 48617A61 		.ascii	"Hazard ON\000"
 178      7264204F 
 178      4E00
 179 002e 0000     		.space	2
 180              	.LC3:
 181 0030 4F464600 		.ascii	"OFF\000"
 182              		.bss
 183              		.align	2
 184              		.set	.LANCHOR0,. + 0
 185              		.type	last_tick.6554, %object
 186              		.size	last_tick.6554, 4
 187              	last_tick.6554:
 188 0000 00000000 		.space	4
 189              		.type	right_button, %object
 190              		.size	right_button, 8
 191              	right_button:
 192 0004 00000000 		.space	8
 192      00000000 
 193              		.type	left_button, %object
 194              		.size	left_button, 8
 195              	left_button:
 196 000c 00000000 		.space	8
 196      00000000 
 197              		.text
 198              	.Letext0:
 199              		.file 2 "c:\\program files (x86)\\cypress\\psoc creator\\4.4\\psoc creator\\import\\gnu\\arm\\5.4.
 200              		.file 3 "c:\\program files (x86)\\cypress\\psoc creator\\4.4\\psoc creator\\import\\gnu\\arm\\5.4.
 201              		.file 4 "gpio_driver.h"
 202              		.file 5 "rtwtypes.h"
 203              		.file 6 "Generated_Source\\PSoC5/core_cm3.h"
 204              		.file 7 "uart_driver.h"
 205              		.file 8 "pwm_driver.h"
 206              		.file 9 "timer_driver.h"
 207              		.file 10 "indicator_control_model.h"